target datalayout = "e-m:e-p270:32:32-p271:32:32-p272:64:64-i64:64-i128:128-f80:128-n8:16:32:64-S128"
target triple = "x86_64-pc-linux-gnu"

%struct.H5O_token_t = type { [16 x i8] }
%struct.H5O_info2_t = type { i64, %struct.H5O_token_t, i32, i32, i64, i64, i64, i64, i64 }
%struct.trav_table_t = type { i64, i64, i64, ptr }
%struct.trav_obj_t = type { %struct.H5O_token_t, [2 x i32], i8, ptr, i32, ptr, i64, i64 }

@H5_libinit_g = external global i8, align 1
@H5_libterm_g = external global i8, align 1
@H5O_TOKEN_UNDEF_g = external constant %struct.H5O_token_t, align 1

; Function Attrs: nounwind uwtable
define internal void @trav_table_add(ptr noundef %0, ptr noundef %1, ptr noundef %2) #0 {
  %4 = alloca ptr, align 8
  %5 = alloca ptr, align 8
  %6 = alloca ptr, align 8
  %7 = alloca i64, align 8
  store ptr %0, ptr %4, align 8, !tbaa !77
  store ptr %1, ptr %5, align 8, !tbaa !10
  store ptr %2, ptr %6, align 8, !tbaa !34
  call void @llvm.lifetime.start.p0(i64 8, ptr %7) #10
  %8 = load ptr, ptr %4, align 8, !tbaa !77
  %9 = icmp ne ptr %8, null
  br i1 %9, label %10, label %147

10:                                               ; preds = %3
  %11 = load ptr, ptr %4, align 8, !tbaa !77
  %12 = getelementptr inbounds nuw %struct.trav_table_t, ptr %11, i32 0, i32 2
  %13 = load i64, ptr %12, align 8, !tbaa !79
  %14 = load ptr, ptr %4, align 8, !tbaa !77
  %15 = getelementptr inbounds nuw %struct.trav_table_t, ptr %14, i32 0, i32 1
  %16 = load i64, ptr %15, align 8, !tbaa !94
  %17 = icmp eq i64 %13, %16
  br i1 %17, label %18, label %44

18:                                               ; preds = %10
  %19 = load ptr, ptr %4, align 8, !tbaa !77
  %20 = getelementptr inbounds nuw %struct.trav_table_t, ptr %19, i32 0, i32 1
  %21 = load i64, ptr %20, align 8, !tbaa !94
  %22 = mul i64 %21, 2
  %23 = icmp ugt i64 1, %22
  br i1 %23, label %24, label %25

24:                                               ; preds = %18
  br label %30

25:                                               ; preds = %18
  %26 = load ptr, ptr %4, align 8, !tbaa !77
  %27 = getelementptr inbounds nuw %struct.trav_table_t, ptr %26, i32 0, i32 1
  %28 = load i64, ptr %27, align 8, !tbaa !94
  %29 = mul i64 %28, 2
  br label %30

30:                                               ; preds = %25, %24
  %31 = phi i64 [ 1, %24 ], [ %29, %25 ]
  %32 = load ptr, ptr %4, align 8, !tbaa !77
  %33 = getelementptr inbounds nuw %struct.trav_table_t, ptr %32, i32 0, i32 1
  store i64 %31, ptr %33, align 8, !tbaa !94
  %34 = load ptr, ptr %4, align 8, !tbaa !77
  %35 = getelementptr inbounds nuw %struct.trav_table_t, ptr %34, i32 0, i32 3
  %36 = load ptr, ptr %35, align 8, !tbaa !82
  %37 = load ptr, ptr %4, align 8, !tbaa !77
  %38 = getelementptr inbounds nuw %struct.trav_table_t, ptr %37, i32 0, i32 1
  %39 = load i64, ptr %38, align 8, !tbaa !94
  %40 = mul i64 %39, 72
  %41 = call ptr @realloc(ptr noundef %36, i64 noundef %40) #11
  %42 = load ptr, ptr %4, align 8, !tbaa !77
  %43 = getelementptr inbounds nuw %struct.trav_table_t, ptr %42, i32 0, i32 3
  store ptr %41, ptr %43, align 8, !tbaa !82
  br label %44

44:                                               ; preds = %30, %10
  %45 = load ptr, ptr %4, align 8, !tbaa !77
  %46 = getelementptr inbounds nuw %struct.trav_table_t, ptr %45, i32 0, i32 2
  %47 = load i64, ptr %46, align 8, !tbaa !79
  %48 = add i64 %47, 1
  store i64 %48, ptr %46, align 8, !tbaa !79
  store i64 %47, ptr %7, align 8, !tbaa !21
  %49 = load ptr, ptr %6, align 8, !tbaa !34
  %50 = icmp ne ptr %49, null
  br i1 %50, label %51, label %60

51:                                               ; preds = %44
  %52 = load ptr, ptr %4, align 8, !tbaa !77
  %53 = getelementptr inbounds nuw %struct.trav_table_t, ptr %52, i32 0, i32 3
  %54 = load ptr, ptr %53, align 8, !tbaa !82
  %55 = load i64, ptr %7, align 8, !tbaa !21
  %56 = getelementptr inbounds nuw %struct.trav_obj_t, ptr %54, i64 %55
  %57 = getelementptr inbounds nuw %struct.trav_obj_t, ptr %56, i32 0, i32 0
  %58 = load ptr, ptr %6, align 8, !tbaa !34
  %59 = getelementptr inbounds nuw %struct.H5O_info2_t, ptr %58, i32 0, i32 1
  call void @llvm.memcpy.p0.p0.i64(ptr align 8 %57, ptr align 8 %59, i64 16, i1 false)
  br label %85

60:                                               ; preds = %44
  %61 = load ptr, ptr %4, align 8, !tbaa !77
  %62 = getelementptr inbounds nuw %struct.trav_table_t, ptr %61, i32 0, i32 3
  %63 = load ptr, ptr %62, align 8, !tbaa !82
  %64 = load i64, ptr %7, align 8, !tbaa !21
  %65 = getelementptr inbounds nuw %struct.trav_obj_t, ptr %63, i64 %64
  %66 = getelementptr inbounds nuw %struct.trav_obj_t, ptr %65, i32 0, i32 0
  %67 = load i8, ptr @H5_libinit_g, align 1, !tbaa !27, !range !28, !noundef !29
  %68 = trunc i8 %67 to i1
  br i1 %68, label %73, label %69

69:                                               ; preds = %60
  %70 = load i8, ptr @H5_libterm_g, align 1, !tbaa !27, !range !28, !noundef !29
  %71 = trunc i8 %70 to i1
  %72 = xor i1 %71, true
  br label %73

73:                                               ; preds = %69, %60
  %74 = phi i1 [ false, %60 ], [ %72, %69 ]
  %75 = xor i1 %74, true
  %76 = xor i1 %75, true
  %77 = zext i1 %76 to i32
  %78 = sext i32 %77 to i64
  %79 = call i64 @llvm.expect.i64(i64 %78, i64 0)
  %80 = icmp ne i64 %79, 0
  br i1 %80, label %81, label %83

81:                                               ; preds = %73
  %82 = call i32 @H5open()
  br label %84

83:                                               ; preds = %73
  br label %84

84:                                               ; preds = %83, %81
  call void @llvm.memcpy.p0.p0.i64(ptr align 8 %66, ptr align 1 @H5O_TOKEN_UNDEF_g, i64 16, i1 false), !tbaa.struct !30
  br label %85

85:                                               ; preds = %84, %51
  %86 = load ptr, ptr %4, align 8, !tbaa !77
  %87 = getelementptr inbounds nuw %struct.trav_table_t, ptr %86, i32 0, i32 3
  %88 = load ptr, ptr %87, align 8, !tbaa !82
  %89 = load i64, ptr %7, align 8, !tbaa !21
  %90 = getelementptr inbounds nuw %struct.trav_obj_t, ptr %88, i64 %89
  %91 = getelementptr inbounds nuw %struct.trav_obj_t, ptr %90, i32 0, i32 1
  %92 = getelementptr inbounds [2 x i32], ptr %91, i64 0, i64 1
  store i32 0, ptr %92, align 4, !tbaa !3
  %93 = load ptr, ptr %4, align 8, !tbaa !77
  %94 = getelementptr inbounds nuw %struct.trav_table_t, ptr %93, i32 0, i32 3
  %95 = load ptr, ptr %94, align 8, !tbaa !82
  %96 = load i64, ptr %7, align 8, !tbaa !21
  %97 = getelementptr inbounds nuw %struct.trav_obj_t, ptr %95, i64 %96
  %98 = getelementptr inbounds nuw %struct.trav_obj_t, ptr %97, i32 0, i32 1
  %99 = getelementptr inbounds [2 x i32], ptr %98, i64 0, i64 0
  store i32 0, ptr %99, align 8, !tbaa !3
  %100 = load ptr, ptr %4, align 8, !tbaa !77
  %101 = getelementptr inbounds nuw %struct.trav_table_t, ptr %100, i32 0, i32 3
  %102 = load ptr, ptr %101, align 8, !tbaa !82
  %103 = load i64, ptr %7, align 8, !tbaa !21
  %104 = getelementptr inbounds nuw %struct.trav_obj_t, ptr %102, i64 %103
  %105 = getelementptr inbounds nuw %struct.trav_obj_t, ptr %104, i32 0, i32 2
  store i8 0, ptr %105, align 8, !tbaa !95
  %106 = load ptr, ptr %5, align 8, !tbaa !10
  %107 = call noalias ptr @strdup(ptr noundef %106) #10
  %108 = load ptr, ptr %4, align 8, !tbaa !77
  %109 = getelementptr inbounds nuw %struct.trav_table_t, ptr %108, i32 0, i32 3
  %110 = load ptr, ptr %109, align 8, !tbaa !82
  %111 = load i64, ptr %7, align 8, !tbaa !21
  %112 = getelementptr inbounds nuw %struct.trav_obj_t, ptr %110, i64 %111
  %113 = getelementptr inbounds nuw %struct.trav_obj_t, ptr %112, i32 0, i32 3
  store ptr %107, ptr %113, align 8, !tbaa !83
  %114 = load ptr, ptr %6, align 8, !tbaa !34
  %115 = icmp ne ptr %114, null
  br i1 %115, label %116, label %120

116:                                              ; preds = %85
  %117 = load ptr, ptr %6, align 8, !tbaa !34
  %118 = getelementptr inbounds nuw %struct.H5O_info2_t, ptr %117, i32 0, i32 2
  %119 = load i32, ptr %118, align 8, !tbaa !37
  br label %121

120:                                              ; preds = %85
  br label %121

121:                                              ; preds = %120, %116
  %122 = phi i32 [ %119, %116 ], [ 3, %120 ]
  %123 = load ptr, ptr %4, align 8, !tbaa !77
  %124 = getelementptr inbounds nuw %struct.trav_table_t, ptr %123, i32 0, i32 3
  %125 = load ptr, ptr %124, align 8, !tbaa !82
  %126 = load i64, ptr %7, align 8, !tbaa !21
  %127 = getelementptr inbounds nuw %struct.trav_obj_t, ptr %125, i64 %126
  %128 = getelementptr inbounds nuw %struct.trav_obj_t, ptr %127, i32 0, i32 4
  store i32 %122, ptr %128, align 8, !tbaa !96
  %129 = load ptr, ptr %4, align 8, !tbaa !77
  %130 = getelementptr inbounds nuw %struct.trav_table_t, ptr %129, i32 0, i32 3
  %131 = load ptr, ptr %130, align 8, !tbaa !82
  %132 = load i64, ptr %7, align 8, !tbaa !21
  %133 = getelementptr inbounds nuw %struct.trav_obj_t, ptr %131, i64 %132
  %134 = getelementptr inbounds nuw %struct.trav_obj_t, ptr %133, i32 0, i32 7
  store i64 0, ptr %134, align 8, !tbaa !86
  %135 = load ptr, ptr %4, align 8, !tbaa !77
  %136 = getelementptr inbounds nuw %struct.trav_table_t, ptr %135, i32 0, i32 3
  %137 = load ptr, ptr %136, align 8, !tbaa !82
  %138 = load i64, ptr %7, align 8, !tbaa !21
  %139 = getelementptr inbounds nuw %struct.trav_obj_t, ptr %137, i64 %138
  %140 = getelementptr inbounds nuw %struct.trav_obj_t, ptr %139, i32 0, i32 6
  store i64 0, ptr %140, align 8, !tbaa !97
  %141 = load ptr, ptr %4, align 8, !tbaa !77
  %142 = getelementptr inbounds nuw %struct.trav_table_t, ptr %141, i32 0, i32 3
  %143 = load ptr, ptr %142, align 8, !tbaa !82
  %144 = load i64, ptr %7, align 8, !tbaa !21
  %145 = getelementptr inbounds nuw %struct.trav_obj_t, ptr %143, i64 %144
  %146 = getelementptr inbounds nuw %struct.trav_obj_t, ptr %145, i32 0, i32 5
  store ptr null, ptr %146, align 8, !tbaa !87
  br label %147

147:                                              ; preds = %121, %3
  call void @llvm.lifetime.end.p0(i64 8, ptr %7) #10
  ret void
}

; Function Attrs: nounwind uwtable
define internal i32 @trav_table_visit_lnk(ptr noundef %0, ptr noundef %1, ptr noundef %2) #0 {
  %4 = alloca ptr, align 8
  %5 = alloca ptr, align 8
  %6 = alloca ptr, align 8
  store ptr %0, ptr %4, align 8, !tbaa !10
  store ptr %1, ptr %5, align 8, !tbaa !36
  store ptr %2, ptr %6, align 8, !tbaa !36
  %7 = load ptr, ptr %6, align 8, !tbaa !36
  %8 = load ptr, ptr %4, align 8, !tbaa !10
  call void @trav_table_add(ptr noundef %7, ptr noundef %8, ptr noundef null)
  ret i32 0
}