; Function Attrs: nounwind uwtable
define internal noundef i32 @trav_table_visit_lnk(ptr noundef readonly captures(none) %0, ptr readnone captures(none) %1, ptr noundef captures(address_is_null) %2) #1 {
  %.not.i = icmp eq ptr %2, null
  br i1 %.not.i, label %trav_table_add.exit, label %4

4:                                                ; preds = %3
  %5 = getelementptr inbounds nuw i8, ptr %2, i64 16
  %6 = load i64, ptr %5, align 8, !tbaa !70
  %7 = getelementptr inbounds nuw i8, ptr %2, i64 8
  %8 = load i64, ptr %7, align 8, !tbaa !73
  %9 = icmp eq i64 %6, %8
  br i1 %9, label %10, label %._crit_edge

._crit_edge:                                      ; preds = %4
  %.phi.trans.insert = getelementptr inbounds nuw i8, ptr %2, i64 24
  %.pre = load ptr, ptr %.phi.trans.insert, align 8, !tbaa !74
  br label %16

10:                                               ; preds = %4
  %11 = shl i64 %6, 1
  %spec.select.i = tail call i64 @llvm.umax.i64(i64 %11, i64 1)
  store i64 %spec.select.i, ptr %7, align 8, !tbaa !73
  %12 = getelementptr inbounds nuw i8, ptr %2, i64 24
  %13 = load ptr, ptr %12, align 8, !tbaa !74
  %14 = mul i64 %spec.select.i, 72
  %15 = tail call ptr @realloc(ptr noundef %13, i64 noundef %14) #17
  store ptr %15, ptr %12, align 8, !tbaa !74
  %.pre.i = load i64, ptr %5, align 8, !tbaa !70
  br label %16

16:                                               ; preds = %._crit_edge, %10
  %17 = phi ptr [ %15, %10 ], [ %.pre, %._crit_edge ]
  %18 = phi i64 [ %.pre.i, %10 ], [ %6, %._crit_edge ]
  %19 = add i64 %18, 1
  store i64 %19, ptr %5, align 8, !tbaa !70
  %20 = getelementptr inbounds nuw i8, ptr %2, i64 24
  %21 = getelementptr inbounds nuw %struct.trav_obj_t, ptr %17, i64 %18
  %22 = load i8, ptr @H5_libinit_g, align 1, !tbaa !23, !range !24, !noundef !25
  %23 = trunc nuw i8 %22 to i1
  %24 = load i8, ptr @H5_libterm_g, align 1, !range !24
  %25 = trunc nuw i8 %24 to i1
  %26 = select i1 %23, i1 true, i1 %25
  br i1 %26, label %29, label %27, !prof !26

27:                                               ; preds = %16
  %28 = tail call i32 @H5open() #18
  br label %29

29:                                               ; preds = %27, %16
  tail call void @llvm.memcpy.p0.p0.i64(ptr noundef nonnull align 8 dereferenceable(16) %21, ptr noundef nonnull align 1 dereferenceable(16) @H5O_TOKEN_UNDEF_g, i64 16, i1 false), !tbaa.struct !27
  %30 = load ptr, ptr %20, align 8, !tbaa !74
  %31 = getelementptr inbounds nuw %struct.trav_obj_t, ptr %30, i64 %18, i32 1
  tail call void @llvm.memset.p0.i64(ptr noundef nonnull align 8 dereferenceable(9) %31, i8 0, i64 9, i1 false)
  %32 = tail call noalias ptr @strdup(ptr noundef readonly %0) #18
  %33 = getelementptr inbounds nuw %struct.trav_obj_t, ptr %30, i64 %18, i32 3
  store ptr %32, ptr %33, align 8, !tbaa !75
  %34 = getelementptr inbounds nuw %struct.trav_obj_t, ptr %30, i64 %18, i32 4
  store i32 3, ptr %34, align 8, !tbaa !78
  %35 = getelementptr inbounds nuw %struct.trav_obj_t, ptr %30, i64 %18, i32 5
  tail call void @llvm.memset.p0.i64(ptr noundef nonnull align 8 dereferenceable(24) %35, i8 0, i64 24, i1 false)
  br label %trav_table_add.exit

trav_table_add.exit:                              ; preds = %3, %29
  ret i32 0
}